target datalayout = "e-m:e-p270:32:32-p271:32:32-p272:64:64-i64:64-i128:128-f80:128-n8:16:32:64-S128"
target triple = "x86_64-pc-linux-gnu"

%struct.jv = type { i8, i8, i16, i32, %union.anon }
%union.anon = type { ptr }
%struct.jq_state = type { ptr, ptr, ptr, ptr, ptr, %struct.jv, %struct.stack, i32, i32, i32, %struct.jv, %struct.jv, i32, i32, i32, i32, i32, %struct.jv, %struct.jv, %struct.jv, ptr, ptr, ptr, ptr, ptr, ptr }
%struct.stack = type { ptr, i32, i32 }

; Function Attrs: nounwind uwtable
define internal i64 @align_round_up(i64 noundef %0) #0 {
  %2 = alloca i64, align 8
  store i64 %0, ptr %2, align 8, !tbaa !24
  %3 = load i64, ptr %2, align 8, !tbaa !24
  %4 = add i64 %3, 7
  %5 = udiv i64 %4, 8
  %6 = mul i64 %5, 8
  ret i64 %6
}

; Function Attrs: nounwind uwtable
define internal ptr @stack_block_next(ptr noundef %0, i32 noundef %1) #0 {
  %3 = alloca ptr, align 8
  %4 = alloca i32, align 4
  store ptr %0, ptr %3, align 8, !tbaa !22
  store i32 %1, ptr %4, align 4, !tbaa !21
  %5 = load ptr, ptr %3, align 8, !tbaa !22
  %6 = load i32, ptr %4, align 4, !tbaa !21
  %7 = call ptr @stack_block(ptr noundef %5, i32 noundef %6)
  %8 = getelementptr inbounds i32, ptr %7, i64 -1
  ret ptr %8
}

; Function Attrs: nounwind uwtable
define internal i32 @stack_pop_block(ptr noundef %0, i32 noundef %1, i64 noundef %2) #0 {
  %4 = alloca ptr, align 8
  %5 = alloca i32, align 4
  %6 = alloca i64, align 8
  %7 = alloca i32, align 4
  %8 = alloca i32, align 4
  store ptr %0, ptr %4, align 8, !tbaa !22
  store i32 %1, ptr %5, align 4, !tbaa !21
  store i64 %2, ptr %6, align 8, !tbaa !24
  call void @llvm.lifetime.start.p0(i64 4, ptr %7) #7
  %9 = load ptr, ptr %4, align 8, !tbaa !22
  %10 = load i32, ptr %5, align 4, !tbaa !21
  %11 = call ptr @stack_block_next(ptr noundef %9, i32 noundef %10)
  %12 = load i32, ptr %11, align 4, !tbaa !21
  store i32 %12, ptr %7, align 4, !tbaa !21
  %13 = load i32, ptr %5, align 4, !tbaa !21
  %14 = load ptr, ptr %4, align 8, !tbaa !22
  %15 = getelementptr inbounds nuw %struct.stack, ptr %14, i32 0, i32 2
  %16 = load i32, ptr %15, align 4, !tbaa !26
  %17 = icmp eq i32 %13, %16
  br i1 %17, label %18, label %28

18:                                               ; preds = %3
  call void @llvm.lifetime.start.p0(i64 4, ptr %8) #7
  %19 = load i64, ptr %6, align 8, !tbaa !24
  %20 = call i64 @align_round_up(i64 noundef %19)
  %21 = add i64 %20, 8
  %22 = trunc i64 %21 to i32
  store i32 %22, ptr %8, align 4, !tbaa !21
  %23 = load i32, ptr %8, align 4, !tbaa !21
  %24 = load ptr, ptr %4, align 8, !tbaa !22
  %25 = getelementptr inbounds nuw %struct.stack, ptr %24, i32 0, i32 2
  %26 = load i32, ptr %25, align 4, !tbaa !26
  %27 = add nsw i32 %26, %23
  store i32 %27, ptr %25, align 4, !tbaa !26
  call void @llvm.lifetime.end.p0(i64 4, ptr %8) #7
  br label %28

28:                                               ; preds = %18, %3
  %29 = load i32, ptr %7, align 4, !tbaa !21
  call void @llvm.lifetime.end.p0(i64 4, ptr %7) #7
  ret i32 %29
}

; Function Attrs: nounwind uwtable
define internal i32 @stack_pop_will_free(ptr noundef %0, i32 noundef %1) #0 {
  %3 = alloca ptr, align 8
  %4 = alloca i32, align 4
  store ptr %0, ptr %3, align 8, !tbaa !22
  store i32 %1, ptr %4, align 4, !tbaa !21
  %5 = load i32, ptr %4, align 4, !tbaa !21
  %6 = load ptr, ptr %3, align 8, !tbaa !22
  %7 = getelementptr inbounds nuw %struct.stack, ptr %6, i32 0, i32 2
  %8 = load i32, ptr %7, align 4, !tbaa !26
  %9 = icmp eq i32 %5, %8
  %10 = zext i1 %9 to i32
  ret i32 %10
}

; Function Attrs: nounwind uwtable
define internal ptr @stack_block(ptr noundef %0, i32 noundef %1) #0 {
  %3 = alloca ptr, align 8
  %4 = alloca i32, align 4
  store ptr %0, ptr %3, align 8, !tbaa !22
  store i32 %1, ptr %4, align 4, !tbaa !21
  %5 = load ptr, ptr %3, align 8, !tbaa !22
  %6 = getelementptr inbounds nuw %struct.stack, ptr %5, i32 0, i32 0
  %7 = load ptr, ptr %6, align 8, !tbaa !28
  %8 = load i32, ptr %4, align 4, !tbaa !21
  %9 = sext i32 %8 to i64
  %10 = getelementptr inbounds i8, ptr %7, i64 %9
  ret ptr %10
}

; Function Attrs: nounwind uwtable
define dso_local { i64, ptr } @stack_pop(ptr noundef %0) #0 {
  %2 = alloca %struct.jv, align 8
  %3 = alloca ptr, align 8
  %4 = alloca ptr, align 8
  %5 = alloca %struct.jv, align 8
  store ptr %0, ptr %3, align 8, !tbaa !4
  call void @llvm.lifetime.start.p0(i64 8, ptr %4) #7
  %6 = load ptr, ptr %3, align 8, !tbaa !4
  %7 = getelementptr inbounds nuw %struct.jq_state, ptr %6, i32 0, i32 6
  %8 = load ptr, ptr %3, align 8, !tbaa !4
  %9 = getelementptr inbounds nuw %struct.jq_state, ptr %8, i32 0, i32 8
  %10 = load i32, ptr %9, align 4, !tbaa !9
  %11 = call ptr @stack_block(ptr noundef %7, i32 noundef %10)
  store ptr %11, ptr %4, align 8, !tbaa !17
  %12 = load ptr, ptr %4, align 8, !tbaa !17
  call void @llvm.memcpy.p0.p0.i64(ptr align 8 %2, ptr align 8 %12, i64 16, i1 false), !tbaa.struct !18
  %13 = load ptr, ptr %3, align 8, !tbaa !4
  %14 = getelementptr inbounds nuw %struct.jq_state, ptr %13, i32 0, i32 6
  %15 = load ptr, ptr %3, align 8, !tbaa !4
  %16 = getelementptr inbounds nuw %struct.jq_state, ptr %15, i32 0, i32 8
  %17 = load i32, ptr %16, align 4, !tbaa !9
  %18 = call i32 @stack_pop_will_free(ptr noundef %14, i32 noundef %17)
  %19 = icmp ne i32 %18, 0
  br i1 %19, label %30, label %20

20:                                               ; preds = %1
  call void @llvm.lifetime.start.p0(i64 16, ptr %5) #7
  %21 = getelementptr inbounds nuw { i64, ptr }, ptr %2, i32 0, i32 0
  %22 = load i64, ptr %21, align 8
  %23 = getelementptr inbounds nuw { i64, ptr }, ptr %2, i32 0, i32 1
  %24 = load ptr, ptr %23, align 8
  %25 = call { i64, ptr } @jv_copy(i64 %22, ptr %24)
  %26 = getelementptr inbounds nuw { i64, ptr }, ptr %5, i32 0, i32 0
  %27 = extractvalue { i64, ptr } %25, 0
  store i64 %27, ptr %26, align 8
  %28 = getelementptr inbounds nuw { i64, ptr }, ptr %5, i32 0, i32 1
  %29 = extractvalue { i64, ptr } %25, 1
  store ptr %29, ptr %28, align 8
  call void @llvm.memcpy.p0.p0.i64(ptr align 8 %2, ptr align 8 %5, i64 16, i1 false), !tbaa.struct !18
  call void @llvm.lifetime.end.p0(i64 16, ptr %5) #7
  br label %30

30:                                               ; preds = %20, %1
  %31 = load ptr, ptr %3, align 8, !tbaa !4
  %32 = getelementptr inbounds nuw %struct.jq_state, ptr %31, i32 0, i32 6
  %33 = load ptr, ptr %3, align 8, !tbaa !4
  %34 = getelementptr inbounds nuw %struct.jq_state, ptr %33, i32 0, i32 8
  %35 = load i32, ptr %34, align 4, !tbaa !9
  %36 = call i32 @stack_pop_block(ptr noundef %32, i32 noundef %35, i64 noundef 16)
  %37 = load ptr, ptr %3, align 8, !tbaa !4
  %38 = getelementptr inbounds nuw %struct.jq_state, ptr %37, i32 0, i32 8
  store i32 %36, ptr %38, align 4, !tbaa !9
  call void @llvm.lifetime.end.p0(i64 8, ptr %4) #7
  %39 = load { i64, ptr }, ptr %2, align 8
  ret { i64, ptr } %39
}